Certificate:
    Data:
        Version: 3 (0x2)
        Serial Number: 4096 (0x1000)
    Signature Algorithm: sha1WithRSAEncryption
        Issuer: CN=ClientCA
        Validity
            Not Before: Aug 14 17:03:49 2013 GMT
            Not After : Aug  2 17:03:49 2063 GMT
        Subject: CN=node-client
        Subject Public Key Info:
            Public Key Algorithm: rsaEncryption
                Public-Key: (2048 bit)
                Modulus:
                    00:bf:dd:62:88:ec:d5:8a:9a:02:82:6e:a9:95:42:
                    0a:58:31:80:13:35:6c:4c:6f:70:ce:e1:21:a3:6b:
                    bb:69:0f:b7:30:bb:34:79:3f:c8:0e:03:51:07:2b:
                    0d:96:61:d5:fb:26:07:d5:34:e0:ba:c3:f3:d2:ce:
                    fb:60:76:f7:69:55:6a:9e:18:b6:aa:d1:8b:f9:7a:
                    33:d9:f7:be:97:bd:de:43:c7:21:0f:d4:de:57:70:
                    b3:2f:85:c6:4c:5d:66:06:9a:d7:ce:ff:91:95:cc:
                    22:76:1c:88:4d:7e:2d:15:22:72:b6:f0:0f:0f:e3:
                    ac:d7:0f:ee:51:01:d0:c6:6a:f9:b1:1b:72:dc:6d:
                    c6:3e:fd:d1:52:41:bf:c6:1f:35:12:72:16:02:72:
                    f0:3d:ee:48:cc:41:b9:03:fb:60:f7:a6:eb:34:5f:
                    ea:ed:86:6f:80:c0:42:ca:97:5b:19:38:08:9d:59:
                    7b:dd:7c:ae:2e:8e:56:6c:ed:b3:0e:d9:71:ce:74:
                    21:0e:9f:5c:66:58:5f:ea:65:01:6d:44:65:83:24:
                    82:8e:6a:56:c3:a2:ee:cf:48:65:22:a1:81:5a:e6:
                    de:90:0a:8a:fa:a0:b2:3a:29:4a:8c:13:f4:16:ee:
                    cd:dd:34:cc:8d:86:ed:ed:25:96:a4:87:84:62:64:
                    c8:19
                Exponent: 65537 (0x10001)
        X509v3 extensions:
            X509v3 Basic Constraints: 
                CA:FALSE
            Netscape Cert Type: 
                SSL Client, SSL Server
            X509v3 Extended Key Usage: 
                TLS Web Server Authentication, TLS Web Client Authentication
    Signature Algorithm: sha1WithRSAEncryption
         70:1e:dc:47:98:29:a1:15:49:2a:ec:0a:29:f5:c5:8f:d4:20:
         85:33:6e:0b:47:a0:5c:d2:c0:05:dc:1c:3b:b2:a6:d0:5a:a0:
         1f:0e:a2:42:64:f1:5d:ad:4f:d1:4a:02:8c:67:f7:0c:ae:4f:
         79:37:9d:66:19:48:5d:62:09:19:e1:6b:58:d5:b9:23:0f:76:
         b5:a2:26:af:ad:67:a3:63:40:9c:92:27:a4:72:e1:9b:3b:00:
         c7:de:45:1e:0e:e4:9a:42:90:f5:74:2c:09:79:f4:dc:bc:10:
         f2:21:be:89:86:22:d0:cb:89:f6:84:66:3b:cd:45:6b:bb:c2:
         7a:61:e1:fe:10:ba:47:39:79:3e:e6:2b:a0:4b:17:5f:4e:c1:
         20:b5:18:6a:0b:be:fe:f1:ba:f6:78:f8:13:56:70:11:50:f7:
         0d:55:f7:37:53:43:ea:7a:65:16:c8:53:58:9d:51:4a:2e:00:
         b2:13:3c:8f:61:ef:2c:0d:86:70:4c:98:9d:b8:b8:b3:15:ba:
         83:44:bc:d0:b4:f9:7b:b1:7d:07:49:6e:03:68:c7:09:40:5c:
         81:21:de:ba:fe:05:e0:aa:f3:e2:57:d1:a0:3a:22:d4:52:a3:
         e1:40:12:d3:e9:aa:10:b8:0e:f7:86:a7:48:57:bb:6d:2d:3a:
         9c:d2:f3:3e
-----BEGIN CERTIFICATE-----
MIIC5jCCAc6gAwIBAgICEAAwDQYJKoZIhvcNAQEFBQAwEzERMA8GA1UEAwwIQ2xp
ZW50Q0EwIBcNMTMwODE0MTcwMzQ5WhgPMjA2MzA4MDIxNzAzNDlaMBYxFDASBgNV
BAMTC25vZGUtY2xpZW50MIIBIjANBgkqhkiG9w0BAQEFAAOCAQ8AMIIBCgKCAQEA
v91iiOzVipoCgm6plUIKWDGAEzVsTG9wzuEho2u7aQ+3MLs0eT/IDgNRBysNlmHV
+yYH1TTgusPz0s77YHb3aVVqnhi2qtGL+Xoz2fe+l73eQ8chD9TeV3CzL4XGTF1m
BprXzv+RlcwidhyITX4tFSJytvAPD+Os1w/uUQHQxmr5sRty3G3GPv3RUkG/xh81
EnIWAnLwPe5IzEG5A/tg96brNF/q7YZvgMBCypdbGTgInVl73XyuLo5WbO2zDtlx
znQhDp9cZlhf6mUBbURlgySCjmpWw6Luz0hlIqGBWubekAqK+qCyOilKjBP0Fu7N
3TTMjYbt7SWWpIeEYmTIGQIDAQABoz8wPTAJBgNVHRMEAjAAMBEGCWCGSAGG+EIB
AQQEAwIGwDAdBgNVHSUEFjAUBggrBgEFBQcDAQYIKwYBBQUHAwIwDQYJKoZIhvcN
AQEFBQADggEBAHAe3EeYKaEVSSrsCin1xY/UIIUzbgtHoFzSwAXcHDuyptBaoB8O
okJk8V2tT9FKAoxn9wyuT3k3nWYZSF1iCRnha1jVuSMPdrWiJq+tZ6NjQJySJ6Ry
4Zs7AMfeRR4O5JpCkPV0LAl59Ny8EPIhvomGItDLifaEZjvNRWu7wnph4f4Qukc5
eT7mK6BLF19OwSC1GGoLvv7xuvZ4+BNWcBFQ9w1V9zdTQ+p6ZRbIU1idUUouALIT
PI9h7ywNhnBMmJ24uLMVuoNEvNC0+XuxfQdJbgNoxwlAXIEh3rr+BeCq8+JX0aA6
ItRSo+FAEtPpqhC4DveGp0hXu20tOpzS8z4=
-----END CERTIFICATE-----
